target datalayout = "e-m:e-p270:32:32-p271:32:32-p272:64:64-i64:64-i128:128-f80:128-n8:16:32:64-S128"
target triple = "x86_64-unknown-linux-gnu"

%struct.uv_buf_t = type { ptr, i64 }
%"class.node::heap::(anonymous namespace)::FileOutputStream" = type <{ %"class.v8::OutputStream", i32, [4 x i8], ptr, i32, [4 x i8] }>
%"class.v8::OutputStream" = type { ptr }

; Function Attrs: mustprogress nounwind uwtable
define internal noundef i32 @_ZN4node4heap12_GLOBAL__N_116FileOutputStream15WriteAsciiChunkEPci(ptr noundef nonnull align 8 dereferenceable(28) %this, ptr noundef %data, i32 noundef %size) unnamed_addr #4 align 2 {
entry:
  %retval = alloca i32, align 4
  %this.addr = alloca ptr, align 8
  %data.addr = alloca ptr, align 8
  %size.addr = alloca i32, align 4
  %offset = alloca i32, align 4
  %buf = alloca %struct.uv_buf_t, align 8
  %num_bytes_written = alloca i32, align 4
  store ptr %this, ptr %this.addr, align 8
  store ptr %data, ptr %data.addr, align 8
  store i32 %size, ptr %size.addr, align 4
  %this1 = load ptr, ptr %this.addr, align 8
  store i32 0, ptr %offset, align 4
  br label %while.cond

while.cond:                                       ; preds = %if.end, %entry
  %0 = load i32, ptr %offset, align 4
  %1 = load i32, ptr %size.addr, align 4
  %cmp = icmp slt i32 %0, %1
  br i1 %cmp, label %while.body, label %while.end

while.body:                                       ; preds = %while.cond
  %2 = load ptr, ptr %data.addr, align 8
  %3 = load i32, ptr %offset, align 4
  %idx.ext = sext i32 %3 to i64
  %add.ptr = getelementptr inbounds i8, ptr %2, i64 %idx.ext
  %4 = load i32, ptr %size.addr, align 4
  %5 = load i32, ptr %offset, align 4
  %sub = sub nsw i32 %4, %5
  %call = call { ptr, i64 } @uv_buf_init(ptr noundef %add.ptr, i32 noundef %sub)
  %6 = getelementptr inbounds { ptr, i64 }, ptr %buf, i32 0, i32 0
  %7 = extractvalue { ptr, i64 } %call, 0
  store ptr %7, ptr %6, align 8
  %8 = getelementptr inbounds { ptr, i64 }, ptr %buf, i32 0, i32 1
  %9 = extractvalue { ptr, i64 } %call, 1
  store i64 %9, ptr %8, align 8
  %req_ = getelementptr inbounds %"class.node::heap::(anonymous namespace)::FileOutputStream", ptr %this1, i32 0, i32 3
  %10 = load ptr, ptr %req_, align 8
  %fd_ = getelementptr inbounds %"class.node::heap::(anonymous namespace)::FileOutputStream", ptr %this1, i32 0, i32 1
  %11 = load i32, ptr %fd_, align 8
  %call2 = call i32 @uv_fs_write(ptr noundef null, ptr noundef %10, i32 noundef %11, ptr noundef %buf, i32 noundef 1, i64 noundef -1, ptr noundef null)
  store i32 %call2, ptr %num_bytes_written, align 4
  %req_3 = getelementptr inbounds %"class.node::heap::(anonymous namespace)::FileOutputStream", ptr %this1, i32 0, i32 3
  %12 = load ptr, ptr %req_3, align 8
  call void @uv_fs_req_cleanup(ptr noundef %12)
  %13 = load i32, ptr %num_bytes_written, align 4
  %cmp4 = icmp slt i32 %13, 0
  br i1 %cmp4, label %if.then, label %if.end

if.then:                                          ; preds = %while.body
  %14 = load i32, ptr %num_bytes_written, align 4
  %status_ = getelementptr inbounds %"class.node::heap::(anonymous namespace)::FileOutputStream", ptr %this1, i32 0, i32 4
  store i32 %14, ptr %status_, align 8
  store i32 1, ptr %retval, align 4
  br label %return

if.end:                                           ; preds = %while.body
  %15 = load i32, ptr %num_bytes_written, align 4
  %16 = load i32, ptr %offset, align 4
  %add = add nsw i32 %16, %15
  store i32 %add, ptr %offset, align 4
  br label %while.cond, !llvm.loop !24

while.end:                                        ; preds = %while.cond
  store i32 0, ptr %retval, align 4
  br label %return

return:                                           ; preds = %while.end, %if.then
  %17 = load i32, ptr %retval, align 4
  ret i32 %17
}