; Function Attrs: mustprogress nounwind uwtable
define internal noundef i32 @_ZN4node4heap12_GLOBAL__N_116FileOutputStream15WriteAsciiChunkEPci(ptr nocapture noundef nonnull align 8 dereferenceable(28) %this, ptr noundef %data, i32 noundef %size) unnamed_addr #3 align 2 {
entry:
  %buf = alloca %struct.uv_buf_t, align 8
  %cmp7 = icmp sgt i32 %size, 0
  br i1 %cmp7, label %while.body.lr.ph, label %return

while.body.lr.ph:                                 ; preds = %entry
  %0 = getelementptr inbounds i8, ptr %buf, i64 8
  %req_ = getelementptr inbounds i8, ptr %this, i64 16
  %fd_ = getelementptr inbounds i8, ptr %this, i64 8
  br label %while.body

while.body:                                       ; preds = %while.body.lr.ph, %if.end
  %offset.08 = phi i32 [ 0, %while.body.lr.ph ], [ %add, %if.end ]
  %idx.ext = zext nneg i32 %offset.08 to i64
  %add.ptr = getelementptr inbounds i8, ptr %data, i64 %idx.ext
  %sub = sub nsw i32 %size, %offset.08
  %call = call { ptr, i64 } @uv_buf_init(ptr noundef %add.ptr, i32 noundef %sub) #22
  %1 = extractvalue { ptr, i64 } %call, 0
  store ptr %1, ptr %buf, align 8
  %2 = extractvalue { ptr, i64 } %call, 1
  store i64 %2, ptr %0, align 8
  %3 = load ptr, ptr %req_, align 8
  %4 = load i32, ptr %fd_, align 8
  %call2 = call i32 @uv_fs_write(ptr noundef null, ptr noundef %3, i32 noundef %4, ptr noundef nonnull %buf, i32 noundef 1, i64 noundef -1, ptr noundef null) #22
  %5 = load ptr, ptr %req_, align 8
  call void @uv_fs_req_cleanup(ptr noundef %5) #22
  %cmp4 = icmp slt i32 %call2, 0
  br i1 %cmp4, label %if.then, label %if.end

if.then:                                          ; preds = %while.body
  %status_ = getelementptr inbounds i8, ptr %this, i64 24
  store i32 %call2, ptr %status_, align 8
  br label %return

if.end:                                           ; preds = %while.body
  %add = add nuw nsw i32 %call2, %offset.08
  %cmp = icmp slt i32 %add, %size
  br i1 %cmp, label %while.body, label %return, !llvm.loop !34

return:                                           ; preds = %if.end, %entry, %if.then
  %retval.0 = phi i32 [ 1, %if.then ], [ 0, %entry ], [ 0, %if.end ]
  ret i32 %retval.0
}